; Function Attrs: mustprogress uwtable
define hidden noalias noundef ptr @_Z10mk_impliesP5probeS0_(ptr noundef %0, ptr noundef %1) local_unnamed_addr #3 personality ptr @__gxx_personality_v0 {
  %3 = tail call noalias noundef ptr @_ZN6memory8allocateEm(i64 noundef 24)
  %4 = getelementptr inbounds nuw i8, ptr %3, i64 8
  store i32 0, ptr %4, align 8, !tbaa !6
  %5 = getelementptr inbounds nuw i8, ptr %3, i64 16
  store ptr %0, ptr %5, align 8, !tbaa !13
  %6 = getelementptr inbounds nuw i8, ptr %0, i64 8
  %7 = load i32, ptr %6, align 8, !tbaa !6
  %8 = add i32 %7, 1
  store i32 %8, ptr %6, align 8, !tbaa !6
  store ptr getelementptr inbounds nuw inrange(-16, 24) (i8, ptr @_ZTV9not_probe, i64 16), ptr %3, align 8, !tbaa !3
  %9 = tail call noalias noundef ptr @_ZN6memory8allocateEm(i64 noundef 32)
  %10 = getelementptr inbounds nuw i8, ptr %9, i64 8
  store i32 0, ptr %10, align 8, !tbaa !6
  %11 = getelementptr inbounds nuw i8, ptr %9, i64 16
  store ptr %3, ptr %11, align 8, !tbaa !17
  %12 = getelementptr inbounds nuw i8, ptr %9, i64 24
  store ptr %1, ptr %12, align 8, !tbaa !19
  store i32 1, ptr %4, align 8, !tbaa !6
  %13 = getelementptr inbounds nuw i8, ptr %1, i64 8
  %14 = load i32, ptr %13, align 8, !tbaa !6
  %15 = add i32 %14, 1
  store i32 %15, ptr %13, align 8, !tbaa !6
  store ptr getelementptr inbounds nuw inrange(-16, 24) (i8, ptr @_ZTV8or_probe, i64 16), ptr %9, align 8, !tbaa !3
  ret ptr %9
}